; Function Attrs: mustprogress nounwind uwtable
define dso_local noundef nonnull ptr @_ZNK5clang6driver6Driver19getDefaultImageNameEv(ptr noundef nonnull align 8 dereferenceable(1192) %0) local_unnamed_addr #0 align 2 {
  %2 = alloca %"class.llvm::Triple", align 8
  %3 = alloca %"class.llvm::Twine", align 8
  %4 = alloca %"class.std::__cxx11::basic_string", align 8
  %5 = getelementptr inbounds nuw i8, ptr %0, i64 920
  %6 = tail call noundef ptr @_ZNKSt7__cxx1112basic_stringIcSt11char_traitsIcESaIcEE4dataEv(ptr noundef nonnull align 8 dereferenceable(32) %5) #30
  %7 = tail call noundef i64 @_ZNKSt7__cxx1112basic_stringIcSt11char_traitsIcESaIcEE6lengthEv(ptr noundef nonnull align 8 dereferenceable(32) %5) #30
  call void @_ZN4llvm6Triple9normalizeB5cxx11ENS_9StringRefE(ptr dead_on_unwind nonnull writable sret(%"class.std::__cxx11::basic_string") align 8 %4, ptr %6, i64 %7) #30
  %8 = getelementptr inbounds nuw i8, ptr %3, i64 32
  store i8 4, ptr %8, align 8
  %9 = getelementptr inbounds nuw i8, ptr %3, i64 33
  store i8 1, ptr %9, align 1
  store ptr %4, ptr %3, align 8
  call void @_ZN4llvm6TripleC1ERKNS_5TwineE(ptr noundef nonnull align 8 dereferenceable(56) %2, ptr noundef nonnull align 8 dereferenceable(34) %3) #30
  call void @_ZNSt7__cxx1112basic_stringIcSt11char_traitsIcESaIcEED1Ev(ptr noundef nonnull align 8 dereferenceable(32) %4) #30
  %10 = getelementptr inbounds nuw i8, ptr %2, i64 44
  %11 = load i32, ptr %10, align 4
  %12 = icmp eq i32 %11, 14
  %.str.126..str.127 = select i1 %12, ptr @.str.126, ptr @.str.127
  call void @_ZNSt7__cxx1112basic_stringIcSt11char_traitsIcESaIcEED1Ev(ptr noundef nonnull align 8 dereferenceable(32) %2) #30
  ret ptr %.str.126..str.127
}